Certificate:
    Data:
        Version: 3 (0x2)
        Serial Number: 5 (0x5)
    Signature Algorithm: sha1WithRSAEncryption
        Issuer: C=GB, ST=Derbyshire, O=Mosquitto Project, OU=Testing, CN=Signing CA
        Validity
            Not Before: Aug 20 00:00:00 2012 GMT
            Not After : Aug 21 00:00:00 2012 GMT
        Subject: CN=localhost
        Subject Public Key Info:
            Public Key Algorithm: rsaEncryption
                Public-Key: (1024 bit)
                Modulus:
                    00:c9:18:e1:6a:c4:45:58:0e:b7:65:3a:b8:6f:df:
                    0a:d8:5d:18:aa:40:08:d6:d5:79:fa:ca:79:6b:9e:
                    ce:55:85:c9:d5:4f:bb:7f:5a:81:c8:3c:5d:aa:ed:
                    7f:48:87:c2:f1:4c:62:00:c3:8d:9a:a3:c2:77:25:
                    c6:70:cc:ef:d1:8f:17:7d:1b:c3:ab:66:3e:90:f0:
                    44:e3:85:8b:77:86:21:b2:dd:0b:2c:ed:a0:16:a0:
                    16:63:49:b9:bb:90:45:44:f1:f7:1e:ad:57:1c:45:
                    a2:08:99:13:05:e3:13:76:ef:f3:cd:f3:3a:21:73:
                    21:75:0a:2d:58:e2:0a:3a:3d
                Exponent: 65537 (0x10001)
        X509v3 extensions:
            X509v3 Basic Constraints: 
                CA:FALSE
            Netscape Comment: 
                OpenSSL Generated Certificate
            X509v3 Subject Key Identifier: 
                7E:42:6C:12:CB:42:12:36:54:03:29:B6:D8:21:CA:E1:65:48:C5:67
            X509v3 Authority Key Identifier: 
                keyid:9E:54:3E:E5:2F:E5:EA:40:4A:FC:37:96:6C:45:BB:1A:79:0E:CA:AB

    Signature Algorithm: sha1WithRSAEncryption
         ab:c1:63:e2:f0:17:c4:e1:89:14:0b:63:9f:4d:80:c4:35:ea:
         ff:28:b9:47:a0:d2:ba:fb:04:84:1e:1f:cf:d7:dd:03:c0:93:
         a0:56:6c:ea:b0:4f:30:38:21:ed:12:a2:99:49:78:3a:40:3e:
         26:fc:21:6d:29:df:9e:22:9a:48:62:55:81:51:c3:34:0f:f7:
         a4:1d:1e:5c:58:0f:e1:eb:e9:cb:91:3a:aa:fd:f7:2b:63:df:
         eb:2e:a6:8a:4e:17:72:35:51:be:b7:40:2e:ee:4d:26:7d:85:
         ea:c5:c1:17:1b:7d:1c:df:c6:ec:23:02:52:30:06:da:a6:39:
         5c:b3
-----BEGIN CERTIFICATE-----
MIICajCCAdOgAwIBAgIBBTANBgkqhkiG9w0BAQUFADBlMQswCQYDVQQGEwJHQjET
MBEGA1UECAwKRGVyYnlzaGlyZTEaMBgGA1UECgwRTW9zcXVpdHRvIFByb2plY3Qx
EDAOBgNVBAsMB1Rlc3RpbmcxEzARBgNVBAMMClNpZ25pbmcgQ0EwHhcNMTIwODIw
MDAwMDAwWhcNMTIwODIxMDAwMDAwWjAUMRIwEAYDVQQDDAlsb2NhbGhvc3QwgZ8w
DQYJKoZIhvcNAQEBBQADgY0AMIGJAoGBAMkY4WrERVgOt2U6uG/fCthdGKpACNbV
efrKeWuezlWFydVPu39agcg8Xartf0iHwvFMYgDDjZqjwnclxnDM79GPF30bw6tm
PpDwROOFi3eGIbLdCyztoBagFmNJubuQRUTx9x6tVxxFogiZEwXjE3bv883zOiFz
IXUKLVjiCjo9AgMBAAGjezB5MAkGA1UdEwQCMAAwLAYJYIZIAYb4QgENBB8WHU9w
ZW5TU0wgR2VuZXJhdGVkIENlcnRpZmljYXRlMB0GA1UdDgQWBBR+QmwSy0ISNlQD
KbbYIcrhZUjFZzAfBgNVHSMEGDAWgBSeVD7lL+XqQEr8N5ZsRbsaeQ7KqzANBgkq
hkiG9w0BAQUFAAOBgQCrwWPi8BfE4YkUC2OfTYDENer/KLlHoNK6+wSEHh/P190D
wJOgVmzqsE8wOCHtEqKZSXg6QD4m/CFtKd+eIppIYlWBUcM0D/ekHR5cWA/h6+nL
kTqq/fcrY9/rLqaKThdyNVG+t0Au7k0mfYXqxcEXG30c38bsIwJSMAbapjlcsw==
-----END CERTIFICATE-----
